target datalayout = "e-m:e-p270:32:32-p271:32:32-p272:64:64-i64:64-i128:128-f80:128-n8:16:32:64-S128"
target triple = "x86_64-pc-linux-gnu"

%"struct.cv::phase_unwrapping::HistogramPhaseUnwrapping::Params" = type { i32, i32, float, i32, i32 }
%"class.cv::phase_unwrapping::HistogramPhaseUnwrapping_Impl" = type { %"class.cv::phase_unwrapping::HistogramPhaseUnwrapping", %"struct.cv::phase_unwrapping::HistogramPhaseUnwrapping::Params", %"class.std::vector", %"class.cv::phase_unwrapping::HistogramPhaseUnwrapping_Impl::Histogram" }
%"class.cv::phase_unwrapping::HistogramPhaseUnwrapping" = type { %"class.cv::phase_unwrapping::PhaseUnwrapping" }
%"class.cv::phase_unwrapping::PhaseUnwrapping" = type { %"class.cv::Algorithm" }
%"class.cv::Algorithm" = type { ptr }
%"class.std::vector" = type { %"struct.std::_Vector_base" }
%"struct.std::_Vector_base" = type { %"struct.std::_Vector_base<cv::phase_unwrapping::HistogramPhaseUnwrapping_Impl::Pixel, std::allocator<cv::phase_unwrapping::HistogramPhaseUnwrapping_Impl::Pixel>>::_Vector_impl" }
%"struct.std::_Vector_base<cv::phase_unwrapping::HistogramPhaseUnwrapping_Impl::Pixel, std::allocator<cv::phase_unwrapping::HistogramPhaseUnwrapping_Impl::Pixel>>::_Vector_impl" = type { %"struct.std::_Vector_base<cv::phase_unwrapping::HistogramPhaseUnwrapping_Impl::Pixel, std::allocator<cv::phase_unwrapping::HistogramPhaseUnwrapping_Impl::Pixel>>::_Vector_impl_data" }
%"struct.std::_Vector_base<cv::phase_unwrapping::HistogramPhaseUnwrapping_Impl::Pixel, std::allocator<cv::phase_unwrapping::HistogramPhaseUnwrapping_Impl::Pixel>>::_Vector_impl_data" = type { ptr, ptr, ptr }
%"class.cv::phase_unwrapping::HistogramPhaseUnwrapping_Impl::Histogram" = type { %"class.std::vector.0", float, float, float, i32, i32, i32 }
%"class.std::vector.0" = type { %"struct.std::_Vector_base.1" }
%"struct.std::_Vector_base.1" = type { %"struct.std::_Vector_base<cv::phase_unwrapping::HistogramPhaseUnwrapping_Impl::HistogramBin, std::allocator<cv::phase_unwrapping::HistogramPhaseUnwrapping_Impl::HistogramBin>>::_Vector_impl" }
%"struct.std::_Vector_base<cv::phase_unwrapping::HistogramPhaseUnwrapping_Impl::HistogramBin, std::allocator<cv::phase_unwrapping::HistogramPhaseUnwrapping_Impl::HistogramBin>>::_Vector_impl" = type { %"struct.std::_Vector_base<cv::phase_unwrapping::HistogramPhaseUnwrapping_Impl::HistogramBin, std::allocator<cv::phase_unwrapping::HistogramPhaseUnwrapping_Impl::HistogramBin>>::_Vector_impl_data" }
%"struct.std::_Vector_base<cv::phase_unwrapping::HistogramPhaseUnwrapping_Impl::HistogramBin, std::allocator<cv::phase_unwrapping::HistogramPhaseUnwrapping_Impl::HistogramBin>>::_Vector_impl_data" = type { ptr, ptr, ptr }
%"class.cv::phase_unwrapping::HistogramPhaseUnwrapping_Impl::Pixel" = type <{ float, i32, i8, [3 x i8], float, i32, i32, i32, i8, [3 x i8] }>
%"class.cv::Mat" = type { i32, i32, i32, i32, ptr, ptr, ptr, ptr, ptr, ptr, %"struct.cv::MatSize", %"struct.cv::MatStep" }
%"struct.cv::MatSize" = type { ptr }
%"struct.cv::MatStep" = type { ptr, [2 x i64] }
%"class.cv::Scalar_" = type { %"class.cv::Vec" }
%"class.cv::Vec" = type { %"class.cv::Matx" }
%"class.cv::Matx" = type { [4 x double] }
%"class.cv::_InputArray" = type { i32, ptr, %"class.cv::Size_" }
%"class.cv::Size_" = type { i32, i32 }

; Function Attrs: inlinehint mustprogress nounwind uwtable
define linkonce_odr hidden void @_ZN2cv4MatxIdLi4ELi1EEC2Ev(ptr noundef nonnull align 8 dereferenceable(32) %0) unnamed_addr #2 comdat align 2 {
  %2 = alloca ptr, align 8
  %3 = alloca i32, align 4
  store ptr %0, ptr %2, align 8, !tbaa !223
  %4 = load ptr, ptr %2, align 8
  call void @llvm.lifetime.start.p0(i64 4, ptr %3) #18
  store i32 0, ptr %3, align 4, !tbaa !23
  br label %5

5:                                                ; preds = %14, %1
  %6 = load i32, ptr %3, align 4, !tbaa !23
  %7 = icmp slt i32 %6, 4
  br i1 %7, label %9, label %8

8:                                                ; preds = %5
  call void @llvm.lifetime.end.p0(i64 4, ptr %3) #18
  br label %17

9:                                                ; preds = %5
  %10 = getelementptr inbounds nuw %"class.cv::Matx", ptr %4, i32 0, i32 0
  %11 = load i32, ptr %3, align 4, !tbaa !23
  %12 = sext i32 %11 to i64
  %13 = getelementptr inbounds [4 x double], ptr %10, i64 0, i64 %12
  store double 0.000000e+00, ptr %13, align 8, !tbaa !108
  br label %14

14:                                               ; preds = %9
  %15 = load i32, ptr %3, align 4, !tbaa !23
  %16 = add nsw i32 %15, 1
  store i32 %16, ptr %3, align 4, !tbaa !23
  br label %5, !llvm.loop !225

17:                                               ; preds = %8
  ret void
}

; Function Attrs: inlinehint mustprogress uwtable
define linkonce_odr hidden void @_ZN2cv3VecIdLi4EEC2Ev(ptr noundef nonnull align 8 dereferenceable(32) %0) unnamed_addr #8 comdat align 2 {
  %2 = alloca ptr, align 8
  store ptr %0, ptr %2, align 8, !tbaa !147
  %3 = load ptr, ptr %2, align 8
  call void @_ZN2cv4MatxIdLi4ELi1EEC2Ev(ptr noundef nonnull align 8 dereferenceable(32) %3)
  ret void
}

; Function Attrs: inlinehint mustprogress uwtable
define linkonce_odr hidden void @_ZN2cv7Scalar_IdEC2Edddd(ptr noundef nonnull align 8 dereferenceable(32) %0, double noundef %1, double noundef %2, double noundef %3, double noundef %4) unnamed_addr #8 comdat align 2 {
  %6 = alloca ptr, align 8
  %7 = alloca double, align 8
  %8 = alloca double, align 8
  %9 = alloca double, align 8
  %10 = alloca double, align 8
  store ptr %0, ptr %6, align 8, !tbaa !221
  store double %1, ptr %7, align 8, !tbaa !108
  store double %2, ptr %8, align 8, !tbaa !108
  store double %3, ptr %9, align 8, !tbaa !108
  store double %4, ptr %10, align 8, !tbaa !108
  %11 = load ptr, ptr %6, align 8
  call void @_ZN2cv3VecIdLi4EEC2Ev(ptr noundef nonnull align 8 dereferenceable(32) %11)
  %12 = load double, ptr %7, align 8, !tbaa !108
  %13 = getelementptr inbounds nuw %"class.cv::Matx", ptr %11, i32 0, i32 0
  %14 = getelementptr inbounds [4 x double], ptr %13, i64 0, i64 0
  store double %12, ptr %14, align 8, !tbaa !108
  %15 = load double, ptr %8, align 8, !tbaa !108
  %16 = getelementptr inbounds nuw %"class.cv::Matx", ptr %11, i32 0, i32 0
  %17 = getelementptr inbounds [4 x double], ptr %16, i64 0, i64 1
  store double %15, ptr %17, align 8, !tbaa !108
  %18 = load double, ptr %9, align 8, !tbaa !108
  %19 = getelementptr inbounds nuw %"class.cv::Matx", ptr %11, i32 0, i32 0
  %20 = getelementptr inbounds [4 x double], ptr %19, i64 0, i64 2
  store double %18, ptr %20, align 8, !tbaa !108
  %21 = load double, ptr %10, align 8, !tbaa !108
  %22 = getelementptr inbounds nuw %"class.cv::Matx", ptr %11, i32 0, i32 0
  %23 = getelementptr inbounds [4 x double], ptr %22, i64 0, i64 3
  store double %21, ptr %23, align 8, !tbaa !108
  ret void
}

; Function Attrs: inlinehint mustprogress nounwind uwtable
define linkonce_odr hidden noundef nonnull align 4 dereferenceable(4) ptr @_ZN2cv3Mat2atIfEERT_ii(ptr noundef nonnull align 8 dereferenceable(96) %0, i32 noundef %1, i32 noundef %2) #2 comdat align 2 {
  %4 = alloca ptr, align 8
  %5 = alloca i32, align 4
  %6 = alloca i32, align 4
  store ptr %0, ptr %4, align 8, !tbaa !95
  store i32 %1, ptr %5, align 4, !tbaa !23
  store i32 %2, ptr %6, align 4, !tbaa !23
  %7 = load ptr, ptr %4, align 8
  %8 = getelementptr inbounds nuw %"class.cv::Mat", ptr %7, i32 0, i32 4
  %9 = load ptr, ptr %8, align 8, !tbaa !137
  %10 = getelementptr inbounds nuw %"class.cv::Mat", ptr %7, i32 0, i32 11
  %11 = getelementptr inbounds nuw %"struct.cv::MatStep", ptr %10, i32 0, i32 0
  %12 = load ptr, ptr %11, align 8, !tbaa !138
  %13 = getelementptr inbounds i64, ptr %12, i64 0
  %14 = load i64, ptr %13, align 8, !tbaa !88
  %15 = load i32, ptr %5, align 4, !tbaa !23
  %16 = sext i32 %15 to i64
  %17 = mul i64 %14, %16
  %18 = getelementptr inbounds nuw i8, ptr %9, i64 %17
  %19 = load i32, ptr %6, align 4, !tbaa !23
  %20 = sext i32 %19 to i64
  %21 = getelementptr inbounds float, ptr %18, i64 %20
  ret ptr %21
}

; Function Attrs: mustprogress nounwind uwtable
define noundef i32 @_ZN2cv16phase_unwrapping29HistogramPhaseUnwrapping_Impl5Pixel12getIncrementEv(ptr noundef nonnull align 4 dereferenceable(29) %0) #0 align 2 {
  %2 = alloca ptr, align 8
  store ptr %0, ptr %2, align 8, !tbaa !33
  %3 = load ptr, ptr %2, align 8
  %4 = getelementptr inbounds nuw %"class.cv::phase_unwrapping::HistogramPhaseUnwrapping_Impl::Pixel", ptr %3, i32 0, i32 5
  %5 = load i32, ptr %4, align 4, !tbaa !43
  ret i32 %5
}

; Function Attrs: mustprogress nounwind uwtable
define noundef float @_ZN2cv16phase_unwrapping29HistogramPhaseUnwrapping_Impl5Pixel13getPhaseValueEv(ptr noundef nonnull align 4 dereferenceable(29) %0) #0 align 2 {
  %2 = alloca ptr, align 8
  store ptr %0, ptr %2, align 8, !tbaa !33
  %3 = load ptr, ptr %2, align 8
  %4 = getelementptr inbounds nuw %"class.cv::phase_unwrapping::HistogramPhaseUnwrapping_Impl::Pixel", ptr %3, i32 0, i32 0
  %5 = load float, ptr %4, align 4, !tbaa !36
  ret float %5
}

; Function Attrs: mustprogress nounwind uwtable
define noundef zeroext i1 @_ZN2cv16phase_unwrapping29HistogramPhaseUnwrapping_Impl5Pixel11getValidityEv(ptr noundef nonnull align 4 dereferenceable(29) %0) #0 align 2 {
  %2 = alloca ptr, align 8
  store ptr %0, ptr %2, align 8, !tbaa !33
  %3 = load ptr, ptr %2, align 8
  %4 = getelementptr inbounds nuw %"class.cv::phase_unwrapping::HistogramPhaseUnwrapping_Impl::Pixel", ptr %3, i32 0, i32 2
  %5 = load i8, ptr %4, align 4, !tbaa !41, !range !39, !noundef !40
  %6 = trunc i8 %5 to i1
  ret i1 %6
}

; Function Attrs: mustprogress nounwind uwtable
define noundef i32 @_ZN2cv16phase_unwrapping29HistogramPhaseUnwrapping_Impl5Pixel8getIndexEv(ptr noundef nonnull align 4 dereferenceable(29) %0) #0 align 2 {
  %2 = alloca ptr, align 8
  store ptr %0, ptr %2, align 8, !tbaa !33
  %3 = load ptr, ptr %2, align 8
  %4 = getelementptr inbounds nuw %"class.cv::phase_unwrapping::HistogramPhaseUnwrapping_Impl::Pixel", ptr %3, i32 0, i32 1
  %5 = load i32, ptr %4, align 4, !tbaa !38
  ret i32 %5
}

; Function Attrs: mustprogress nounwind uwtable
define linkonce_odr hidden noundef nonnull align 4 dereferenceable(29) ptr @_ZNSt6vectorIN2cv16phase_unwrapping29HistogramPhaseUnwrapping_Impl5PixelESaIS3_EEixEm(ptr noundef nonnull align 8 dereferenceable(24) %0, i64 noundef %1) #0 comdat align 2 {
  %3 = alloca ptr, align 8
  %4 = alloca i64, align 8
  store ptr %0, ptr %3, align 8, !tbaa !27
  store i64 %1, ptr %4, align 8, !tbaa !88
  %5 = load ptr, ptr %3, align 8
  %6 = getelementptr inbounds nuw %"struct.std::_Vector_base", ptr %5, i32 0, i32 0
  %7 = getelementptr inbounds nuw %"struct.std::_Vector_base<cv::phase_unwrapping::HistogramPhaseUnwrapping_Impl::Pixel, std::allocator<cv::phase_unwrapping::HistogramPhaseUnwrapping_Impl::Pixel>>::_Vector_impl_data", ptr %6, i32 0, i32 0
  %8 = load ptr, ptr %7, align 8, !tbaa !29
  %9 = load i64, ptr %4, align 8, !tbaa !88
  %10 = getelementptr inbounds nuw %"class.cv::phase_unwrapping::HistogramPhaseUnwrapping_Impl::Pixel", ptr %8, i64 %9
  ret ptr %10
}

; Function Attrs: mustprogress nounwind uwtable
define linkonce_odr hidden noundef i64 @_ZNKSt6vectorIN2cv16phase_unwrapping29HistogramPhaseUnwrapping_Impl5PixelESaIS3_EE4sizeEv(ptr noundef nonnull align 8 dereferenceable(24) %0) #0 comdat align 2 {
  %2 = alloca ptr, align 8
  store ptr %0, ptr %2, align 8, !tbaa !27
  %3 = load ptr, ptr %2, align 8
  %4 = getelementptr inbounds nuw %"struct.std::_Vector_base", ptr %3, i32 0, i32 0
  %5 = getelementptr inbounds nuw %"struct.std::_Vector_base<cv::phase_unwrapping::HistogramPhaseUnwrapping_Impl::Pixel, std::allocator<cv::phase_unwrapping::HistogramPhaseUnwrapping_Impl::Pixel>>::_Vector_impl_data", ptr %4, i32 0, i32 1
  %6 = load ptr, ptr %5, align 8, !tbaa !32
  %7 = getelementptr inbounds nuw %"struct.std::_Vector_base", ptr %3, i32 0, i32 0
  %8 = getelementptr inbounds nuw %"struct.std::_Vector_base<cv::phase_unwrapping::HistogramPhaseUnwrapping_Impl::Pixel, std::allocator<cv::phase_unwrapping::HistogramPhaseUnwrapping_Impl::Pixel>>::_Vector_impl_data", ptr %7, i32 0, i32 0
  %9 = load ptr, ptr %8, align 8, !tbaa !29
  %10 = ptrtoint ptr %6 to i64
  %11 = ptrtoint ptr %9 to i64
  %12 = sub i64 %10, %11
  %13 = sdiv exact i64 %12, 32
  ret i64 %13
}

; Function Attrs: inlinehint mustprogress uwtable
define linkonce_odr hidden void @_ZN2cv7Scalar_IdE3allEd(ptr dead_on_unwind noalias writable sret(%"class.cv::Scalar_") align 8 %0, double noundef %1) #8 comdat align 2 {
  %3 = alloca ptr, align 8
  %4 = alloca double, align 8
  store ptr %0, ptr %3, align 8
  store double %1, ptr %4, align 8, !tbaa !108
  %5 = load double, ptr %4, align 8, !tbaa !108
  %6 = load double, ptr %4, align 8, !tbaa !108
  %7 = load double, ptr %4, align 8, !tbaa !108
  %8 = load double, ptr %4, align 8, !tbaa !108
  call void @_ZN2cv7Scalar_IdEC2Edddd(ptr noundef nonnull align 8 dereferenceable(32) %0, double noundef %5, double noundef %6, double noundef %7, double noundef %8)
  ret void
}

; Function Attrs: inlinehint mustprogress nounwind uwtable
define linkonce_odr hidden noundef ptr @_ZNK2cv11_InputArray6getObjEv(ptr noundef nonnull align 8 dereferenceable(24) %0) #2 comdat align 2 {
  %2 = alloca ptr, align 8
  store ptr %0, ptr %2, align 8, !tbaa !91
  %3 = load ptr, ptr %2, align 8
  %4 = getelementptr inbounds nuw %"class.cv::_InputArray", ptr %3, i32 0, i32 1
  %5 = load ptr, ptr %4, align 8, !tbaa !105
  ret ptr %5
}

; Function Attrs: mustprogress uwtable
define void @_ZN2cv16phase_unwrapping29HistogramPhaseUnwrapping_Impl12addIncrementERKNS_12_OutputArrayE(ptr noundef nonnull align 8 dereferenceable(104) %0, ptr noundef nonnull align 8 dereferenceable(24) %1) #1 align 2 {
  %3 = alloca ptr, align 8
  %4 = alloca ptr, align 8
  %5 = alloca ptr, align 8
  %6 = alloca i32, align 4
  %7 = alloca i32, align 4
  %8 = alloca %"class.cv::Scalar_", align 8
  %9 = alloca i32, align 4
  %10 = alloca i32, align 4
  %11 = alloca i32, align 4
  %12 = alloca i32, align 4
  store ptr %0, ptr %3, align 8, !tbaa !16
  store ptr %1, ptr %4, align 8, !tbaa !93
  %13 = load ptr, ptr %3, align 8
  call void @llvm.lifetime.start.p0(i64 8, ptr %5) #18
  %14 = load ptr, ptr %4, align 8, !tbaa !93
  %15 = call noundef ptr @_ZNK2cv11_InputArray6getObjEv(ptr noundef nonnull align 8 dereferenceable(24) %14)
  store ptr %15, ptr %5, align 8, !tbaa !95
  call void @llvm.lifetime.start.p0(i64 4, ptr %6) #18
  %16 = getelementptr inbounds nuw %"class.cv::phase_unwrapping::HistogramPhaseUnwrapping_Impl", ptr %13, i32 0, i32 1
  %17 = getelementptr inbounds nuw %"struct.cv::phase_unwrapping::HistogramPhaseUnwrapping::Params", ptr %16, i32 0, i32 1
  %18 = load i32, ptr %17, align 4, !tbaa !97
  store i32 %18, ptr %6, align 4, !tbaa !23
  call void @llvm.lifetime.start.p0(i64 4, ptr %7) #18
  %19 = getelementptr inbounds nuw %"class.cv::phase_unwrapping::HistogramPhaseUnwrapping_Impl", ptr %13, i32 0, i32 1
  %20 = getelementptr inbounds nuw %"struct.cv::phase_unwrapping::HistogramPhaseUnwrapping::Params", ptr %19, i32 0, i32 0
  %21 = load i32, ptr %20, align 8, !tbaa !104
  store i32 %21, ptr %7, align 4, !tbaa !23
  %22 = load ptr, ptr %5, align 8, !tbaa !95
  %23 = call noundef zeroext i1 @_ZNK2cv3Mat5emptyEv(ptr noundef nonnull align 8 dereferenceable(96) %22)
  br i1 %23, label %24, label %30

24:                                               ; preds = %2
  %25 = load ptr, ptr %5, align 8, !tbaa !95
  %26 = load i32, ptr %6, align 4, !tbaa !23
  %27 = load i32, ptr %7, align 4, !tbaa !23
  call void @_ZN2cv3Mat6createEiii(ptr noundef nonnull align 8 dereferenceable(96) %25, i32 noundef %26, i32 noundef %27, i32 noundef 5)
  call void @llvm.lifetime.start.p0(i64 32, ptr %8) #18
  call void @_ZN2cv7Scalar_IdE3allEd(ptr dead_on_unwind writable sret(%"class.cv::Scalar_") align 8 %8, double noundef 0.000000e+00)
  %28 = load ptr, ptr %5, align 8, !tbaa !95
  %29 = call noundef nonnull align 8 dereferenceable(96) ptr @_ZN2cv3MataSERKNS_7Scalar_IdEE(ptr noundef nonnull align 8 dereferenceable(96) %28, ptr noundef nonnull align 8 dereferenceable(32) %8)
  call void @llvm.lifetime.end.p0(i64 32, ptr %8) #18
  br label %30

30:                                               ; preds = %24, %2
  call void @llvm.lifetime.start.p0(i64 4, ptr %9) #18
  %31 = getelementptr inbounds nuw %"class.cv::phase_unwrapping::HistogramPhaseUnwrapping_Impl", ptr %13, i32 0, i32 2
  %32 = call noundef i64 @_ZNKSt6vectorIN2cv16phase_unwrapping29HistogramPhaseUnwrapping_Impl5PixelESaIS3_EE4sizeEv(ptr noundef nonnull align 8 dereferenceable(24) %31) #18
  %33 = trunc i64 %32 to i32
  store i32 %33, ptr %9, align 4, !tbaa !23
  call void @llvm.lifetime.start.p0(i64 4, ptr %10) #18
  store i32 0, ptr %10, align 4, !tbaa !23
  br label %34

34:                                               ; preds = %83, %30
  %35 = load i32, ptr %10, align 4, !tbaa !23
  %36 = load i32, ptr %9, align 4, !tbaa !23
  %37 = icmp slt i32 %35, %36
  br i1 %37, label %39, label %38

38:                                               ; preds = %34
  call void @llvm.lifetime.end.p0(i64 4, ptr %10) #18
  br label %86

39:                                               ; preds = %34
  call void @llvm.lifetime.start.p0(i64 4, ptr %11) #18
  %40 = getelementptr inbounds nuw %"class.cv::phase_unwrapping::HistogramPhaseUnwrapping_Impl", ptr %13, i32 0, i32 2
  %41 = load i32, ptr %10, align 4, !tbaa !23
  %42 = sext i32 %41 to i64
  %43 = call noundef nonnull align 4 dereferenceable(29) ptr @_ZNSt6vectorIN2cv16phase_unwrapping29HistogramPhaseUnwrapping_Impl5PixelESaIS3_EEixEm(ptr noundef nonnull align 8 dereferenceable(24) %40, i64 noundef %42) #18
  %44 = call noundef i32 @_ZN2cv16phase_unwrapping29HistogramPhaseUnwrapping_Impl5Pixel8getIndexEv(ptr noundef nonnull align 4 dereferenceable(29) %43)
  %45 = getelementptr inbounds nuw %"class.cv::phase_unwrapping::HistogramPhaseUnwrapping_Impl", ptr %13, i32 0, i32 1
  %46 = getelementptr inbounds nuw %"struct.cv::phase_unwrapping::HistogramPhaseUnwrapping::Params", ptr %45, i32 0, i32 0
  %47 = load i32, ptr %46, align 8, !tbaa !104
  %48 = sdiv i32 %44, %47
  store i32 %48, ptr %11, align 4, !tbaa !23
  call void @llvm.lifetime.start.p0(i64 4, ptr %12) #18
  %49 = getelementptr inbounds nuw %"class.cv::phase_unwrapping::HistogramPhaseUnwrapping_Impl", ptr %13, i32 0, i32 2
  %50 = load i32, ptr %10, align 4, !tbaa !23
  %51 = sext i32 %50 to i64
  %52 = call noundef nonnull align 4 dereferenceable(29) ptr @_ZNSt6vectorIN2cv16phase_unwrapping29HistogramPhaseUnwrapping_Impl5PixelESaIS3_EEixEm(ptr noundef nonnull align 8 dereferenceable(24) %49, i64 noundef %51) #18
  %53 = call noundef i32 @_ZN2cv16phase_unwrapping29HistogramPhaseUnwrapping_Impl5Pixel8getIndexEv(ptr noundef nonnull align 4 dereferenceable(29) %52)
  %54 = getelementptr inbounds nuw %"class.cv::phase_unwrapping::HistogramPhaseUnwrapping_Impl", ptr %13, i32 0, i32 1
  %55 = getelementptr inbounds nuw %"struct.cv::phase_unwrapping::HistogramPhaseUnwrapping::Params", ptr %54, i32 0, i32 0
  %56 = load i32, ptr %55, align 8, !tbaa !104
  %57 = srem i32 %53, %56
  store i32 %57, ptr %12, align 4, !tbaa !23
  %58 = getelementptr inbounds nuw %"class.cv::phase_unwrapping::HistogramPhaseUnwrapping_Impl", ptr %13, i32 0, i32 2
  %59 = load i32, ptr %10, align 4, !tbaa !23
  %60 = sext i32 %59 to i64
  %61 = call noundef nonnull align 4 dereferenceable(29) ptr @_ZNSt6vectorIN2cv16phase_unwrapping29HistogramPhaseUnwrapping_Impl5PixelESaIS3_EEixEm(ptr noundef nonnull align 8 dereferenceable(24) %58, i64 noundef %60) #18
  %62 = call noundef zeroext i1 @_ZN2cv16phase_unwrapping29HistogramPhaseUnwrapping_Impl5Pixel11getValidityEv(ptr noundef nonnull align 4 dereferenceable(29) %61)
  br i1 %62, label %63, label %82

63:                                               ; preds = %39
  %64 = getelementptr inbounds nuw %"class.cv::phase_unwrapping::HistogramPhaseUnwrapping_Impl", ptr %13, i32 0, i32 2
  %65 = load i32, ptr %10, align 4, !tbaa !23
  %66 = sext i32 %65 to i64
  %67 = call noundef nonnull align 4 dereferenceable(29) ptr @_ZNSt6vectorIN2cv16phase_unwrapping29HistogramPhaseUnwrapping_Impl5PixelESaIS3_EEixEm(ptr noundef nonnull align 8 dereferenceable(24) %64, i64 noundef %66) #18
  %68 = call noundef float @_ZN2cv16phase_unwrapping29HistogramPhaseUnwrapping_Impl5Pixel13getPhaseValueEv(ptr noundef nonnull align 4 dereferenceable(29) %67)
  %69 = getelementptr inbounds nuw %"class.cv::phase_unwrapping::HistogramPhaseUnwrapping_Impl", ptr %13, i32 0, i32 2
  %70 = load i32, ptr %10, align 4, !tbaa !23
  %71 = sext i32 %70 to i64
  %72 = call noundef nonnull align 4 dereferenceable(29) ptr @_ZNSt6vectorIN2cv16phase_unwrapping29HistogramPhaseUnwrapping_Impl5PixelESaIS3_EEixEm(ptr noundef nonnull align 8 dereferenceable(24) %69, i64 noundef %71) #18
  %73 = call noundef i32 @_ZN2cv16phase_unwrapping29HistogramPhaseUnwrapping_Impl5Pixel12getIncrementEv(ptr noundef nonnull align 4 dereferenceable(29) %72)
  %74 = sitofp i32 %73 to double
  %75 = fmul double 0x401921FB54442D18, %74
  %76 = fptrunc double %75 to float
  %77 = fadd float %68, %76
  %78 = load ptr, ptr %5, align 8, !tbaa !95
  %79 = load i32, ptr %11, align 4, !tbaa !23
  %80 = load i32, ptr %12, align 4, !tbaa !23
  %81 = call noundef nonnull align 4 dereferenceable(4) ptr @_ZN2cv3Mat2atIfEERT_ii(ptr noundef nonnull align 8 dereferenceable(96) %78, i32 noundef %79, i32 noundef %80)
  store float %77, ptr %81, align 4, !tbaa !24
  br label %82

82:                                               ; preds = %63, %39
  call void @llvm.lifetime.end.p0(i64 4, ptr %12) #18
  call void @llvm.lifetime.end.p0(i64 4, ptr %11) #18
  br label %83

83:                                               ; preds = %82
  %84 = load i32, ptr %10, align 4, !tbaa !23
  %85 = add nsw i32 %84, 1
  store i32 %85, ptr %10, align 4, !tbaa !23
  br label %34, !llvm.loop !134

86:                                               ; preds = %38
  call void @llvm.lifetime.end.p0(i64 4, ptr %9) #18
  call void @llvm.lifetime.end.p0(i64 4, ptr %7) #18
  call void @llvm.lifetime.end.p0(i64 4, ptr %6) #18
  call void @llvm.lifetime.end.p0(i64 8, ptr %5) #18
  ret void
}