; Function Attrs: mustprogress uwtable
define void @_ZN2cv16phase_unwrapping29HistogramPhaseUnwrapping_Impl12addIncrementERKNS_12_OutputArrayE(ptr noundef nonnull readonly align 8 captures(none) dereferenceable(104) %0, ptr noundef nonnull readonly align 8 captures(none) dereferenceable(24) %1) local_unnamed_addr #1 align 2 {
  %3 = alloca %"class.cv::Scalar_", align 8
  %4 = getelementptr inbounds nuw i8, ptr %1, i64 8
  %5 = load ptr, ptr %4, align 8, !tbaa !83
  %6 = getelementptr inbounds nuw i8, ptr %0, i64 8
  %7 = getelementptr inbounds nuw i8, ptr %0, i64 12
  %8 = load i32, ptr %7, align 4, !tbaa !86
  %9 = load i32, ptr %6, align 8, !tbaa !93
  %10 = tail call noundef zeroext i1 @_ZNK2cv3Mat5emptyEv(ptr noundef nonnull align 8 dereferenceable(96) %5)
  br i1 %10, label %11, label %13

11:                                               ; preds = %2
  tail call void @_ZN2cv3Mat6createEiii(ptr noundef nonnull align 8 dereferenceable(96) %5, i32 noundef %8, i32 noundef %9, i32 noundef 5)
  call void @llvm.lifetime.start.p0(i64 32, ptr nonnull %3) #24
  call void @llvm.memset.p0.i64(ptr noundef nonnull align 8 dereferenceable(32) %3, i8 0, i64 32, i1 false)
  %12 = call noundef nonnull align 8 dereferenceable(96) ptr @_ZN2cv3MataSERKNS_7Scalar_IdEE(ptr noundef nonnull align 8 dereferenceable(96) %5, ptr noundef nonnull align 8 dereferenceable(32) %3)
  call void @llvm.lifetime.end.p0(i64 32, ptr nonnull %3) #24
  br label %13

13:                                               ; preds = %11, %2
  %14 = getelementptr inbounds nuw i8, ptr %0, i64 32
  %15 = getelementptr inbounds nuw i8, ptr %0, i64 40
  %16 = load ptr, ptr %15, align 8, !tbaa !121
  %17 = load ptr, ptr %14, align 8, !tbaa !18
  %18 = ptrtoint ptr %16 to i64
  %19 = ptrtoint ptr %17 to i64
  %20 = sub i64 %18, %19
  %21 = lshr exact i64 %20, 5
  %22 = trunc i64 %21 to i32
  %23 = icmp sgt i32 %22, 0
  br i1 %23, label %.lr.ph, label %._crit_edge

.lr.ph:                                           ; preds = %13
  %24 = load i32, ptr %6, align 8
  %25 = getelementptr inbounds nuw i8, ptr %5, i64 16
  %26 = getelementptr inbounds nuw i8, ptr %5, i64 72
  %wide.trip.count = and i64 %21, 2147483647
  br label %27

._crit_edge:                                      ; preds = %52, %13
  ret void

27:                                               ; preds = %.lr.ph, %52
  %indvars.iv = phi i64 [ 0, %.lr.ph ], [ %indvars.iv.next, %52 ]
  %28 = getelementptr inbounds nuw %"class.cv::phase_unwrapping::HistogramPhaseUnwrapping_Impl::Pixel", ptr %17, i64 %indvars.iv
  %29 = getelementptr inbounds nuw i8, ptr %28, i64 8
  %30 = load i8, ptr %29, align 4, !tbaa !26, !range !32, !noundef !33
  %31 = trunc nuw i8 %30 to i1
  br i1 %31, label %32, label %52

32:                                               ; preds = %27
  %33 = getelementptr inbounds nuw i8, ptr %28, i64 4
  %34 = load i32, ptr %33, align 4, !tbaa !25
  %35 = srem i32 %34, %24
  %36 = sdiv i32 %34, %24
  %37 = load float, ptr %28, align 4, !tbaa !22
  %38 = getelementptr inbounds nuw i8, ptr %28, i64 16
  %39 = load i32, ptr %38, align 4, !tbaa !28
  %40 = sitofp i32 %39 to double
  %41 = fmul double %40, 0x401921FB54442D18
  %42 = fptrunc double %41 to float
  %43 = fadd float %37, %42
  %44 = load ptr, ptr %25, align 8, !tbaa !111
  %45 = load ptr, ptr %26, align 8, !tbaa !112
  %46 = load i64, ptr %45, align 8, !tbaa !113
  %47 = sext i32 %36 to i64
  %48 = mul i64 %46, %47
  %49 = getelementptr inbounds nuw i8, ptr %44, i64 %48
  %50 = sext i32 %35 to i64
  %51 = getelementptr inbounds float, ptr %49, i64 %50
  store float %43, ptr %51, align 4, !tbaa !17
  br label %52

52:                                               ; preds = %32, %27
  %indvars.iv.next = add nuw nsw i64 %indvars.iv, 1
  %exitcond.not = icmp eq i64 %indvars.iv.next, %wide.trip.count
  br i1 %exitcond.not, label %._crit_edge, label %27, !llvm.loop !158
}